; Function Attrs: nounwind sspstrong uwtable
define internal noundef i64 @proc_setpriority(i64 %0, i64 noundef %1, i64 noundef %2, i64 noundef %3) #1 {
  %5 = and i64 %1, 1
  %.not.i = icmp eq i64 %5, 0
  br i1 %.not.i, label %8, label %6

6:                                                ; preds = %4
  %7 = tail call i64 @rb_fix2int(i64 noundef %1) #27
  br label %rb_num2int_inline.exit

8:                                                ; preds = %4
  %9 = tail call i64 @rb_num2int(i64 noundef %1) #27
  br label %rb_num2int_inline.exit

rb_num2int_inline.exit:                           ; preds = %6, %8
  %.0.i = phi i64 [ %7, %6 ], [ %9, %8 ]
  %10 = trunc i64 %.0.i to i32
  %11 = and i64 %2, 1
  %.not.i7 = icmp eq i64 %11, 0
  br i1 %.not.i7, label %14, label %12

12:                                               ; preds = %rb_num2int_inline.exit
  %13 = tail call i64 @rb_fix2int(i64 noundef %2) #27
  br label %rb_num2int_inline.exit9

14:                                               ; preds = %rb_num2int_inline.exit
  %15 = tail call i64 @rb_num2int(i64 noundef %2) #27
  br label %rb_num2int_inline.exit9

rb_num2int_inline.exit9:                          ; preds = %12, %14
  %.0.i8 = phi i64 [ %13, %12 ], [ %15, %14 ]
  %16 = trunc i64 %.0.i8 to i32
  %17 = and i64 %3, 1
  %.not.i10 = icmp eq i64 %17, 0
  br i1 %.not.i10, label %20, label %18

18:                                               ; preds = %rb_num2int_inline.exit9
  %19 = tail call i64 @rb_fix2int(i64 noundef %3) #27
  br label %rb_num2int_inline.exit12

20:                                               ; preds = %rb_num2int_inline.exit9
  %21 = tail call i64 @rb_num2int(i64 noundef %3) #27
  br label %rb_num2int_inline.exit12

rb_num2int_inline.exit12:                         ; preds = %18, %20
  %.0.i11 = phi i64 [ %19, %18 ], [ %21, %20 ]
  %22 = trunc i64 %.0.i11 to i32
  %23 = tail call i32 @setpriority(i32 noundef %10, i32 noundef %16, i32 noundef %22) #27
  %24 = icmp slt i32 %23, 0
  br i1 %24, label %25, label %28

25:                                               ; preds = %rb_num2int_inline.exit12
  %26 = tail call ptr @rb_errno_ptr() #27
  %27 = load i32, ptr %26, align 4, !tbaa !60
  tail call void @rb_syserr_fail(i32 noundef %27, ptr noundef null) #29
  unreachable

28:                                               ; preds = %rb_num2int_inline.exit12
  ret i64 1
}